ccollections
OrderedDict
p0
((lp1
(lp2
S'!'
p3
aI6734
aa(lp4
S'"'
p5
aI25170
aa(lp6
S'#'
p7
aI9
aa(lp8
S'$'
p9
aI20
aa(lp10
S'%'
p11
aI12
aa(lp12
S'&'
p13
aI13
aa(lp14
S"'"
p15
aI13361
aa(lp16
S'('
p17
aI2440
aa(lp18
S')'
p19
aI2451
aa(lp20
S'*'
p21
aI487
aa(lp22
S'+'
p23
aI2
aa(lp24
S','
p25
aI85909
aa(lp26
S'-'
p27
aI24390
aa(lp28
S'.'
p29
aI65687
aa(lp30
S'/'
p31
aI289
aa(lp32
S'0'
p33
aI692
aa(lp34
S'1'
p35
aI1167
aa(lp36
S'2'
p37
aI457
aa(lp38
S'3'
p39
aI314
aa(lp40
S'4'
p41
aI292
aa(lp42
S'5'
p43
aI319
aa(lp44
S'6'
p45
aI228
aa(lp46
S'7'
p47
aI221
aa(lp48
S'8'
p49
aI378
aa(lp50
S'9'
p51
aI277
aa(lp52
S':'
p53
aI3628
aa(lp54
S';'
p55
aI9753
aa(lp56
S'?'
p57
aI6614
aa(lp58
S'@'
p59
aI18
aa(lp60
S'A'
p61
aI10335
aa(lp62
S'B'
p63
aI8479
aa(lp64
S'C'
p65
aI6580
aa(lp66
S'D'
p67
aI5838
aa(lp68
S'E'
p69
aI7328
aa(lp70
S'F'
p71
aI4157
aa(lp72
S'G'
p73
aI4665
aa(lp74
S'H'
p75
aI11647
aa(lp76
S'I'
p77
aI25277
aa(lp78
S'J'
p79
aI2682
aa(lp80
S'K'
p81
aI1566
aa(lp82
S'L'
p83
aI6174
aa(lp84
S'M'
p85
aI12178
aa(lp86
S'N'
p87
aI4782
aa(lp88
S'O'
p89
aI5385
aa(lp90
S'P'
p91
aI5027
aa(lp92
S'Q'
p93
aI548
aa(lp94
S'R'
p95
aI3771
aa(lp96
S'S'
p97
aI10207
aa(lp98
S'T'
p99
aI13787
aa(lp100
S'U'
p101
aI1156
aa(lp102
S'V'
p103
aI1062
aa(lp104
S'W'
p105
aI7904
aa(lp106
S'X'
p107
aI160
aa(lp108
S'Y'
p109
aI3737
aa(lp110
S'Z'
p111
aI193
aa(lp112
S'['
p113
aI16
aa(lp114
S']'
p115
aI17
aa(lp116
S'_'
p117
aI6418
aa(lp118
S'a'
p119
aI384695
aa(lp120
S'b'
p121
aI73393
aa(lp122
S'c'
p123
aI113234
aa(lp124
S'd'
p125
aI203726
aa(lp126
S'e'
p127
aI604373
aa(lp128
S'f'
p129
aI105694
aa(lp130
S'g'
p131
aI100916
aa(lp132
S'h'
p133
aI303083
aa(lp134
S'i'
p135
aI317390
aa(lp136
S'j'
p137
aI5097
aa(lp138
S'k'
p139
aI39590
aa(lp140
S'l'
p141
aI203020
aa(lp142
S'm'
p143
aI119747
aa(lp144
S'n'
p145
aI334430
aa(lp146
S'o'
p147
aI374938
aa(lp148
S'p'
p149
aI80412
aa(lp150
S'q'
p151
aI5501
aa(lp152
S'r'
p153
aI288733
aa(lp154
S's'
p155
aI305163
aa(lp156
S't'
p157
aI426040
aa(lp158
S'u'
p159
aI141472
aa(lp160
S'v'
p161
aI45610
aa(lp162
S'w'
p163
aI107648
aa(lp164
S'x'
p165
aI6579
aa(lp166
S'y'
p167
aI100100
aa(lp168
S'z'
p169
aI3207
aa(lp170
S'\x87'
p171
aI1
aa(lp172
S'\x89'
p173
aI2
aa(lp174
S'\x9c'
p175
aI1
aa(lp176
S'\xa0'
p177
aI11
aa(lp178
S'\xa1'
p179
aI8
aa(lp180
S'\xa2'
p181
aI2
aa(lp182
S'\xa7'
p183
aI1
aa(lp184
S'\xa8'
p185
aI17
aa(lp186
S'\xa9'
p187
aI53
aa(lp188
S'\xaa'
p189
aI7
aa(lp190
S'\xae'
p191
aI1
aa(lp192
S'\xb1'
p193
aI5
aa(lp194
S'\xb2'
p195
aI1
aa(lp196
S'\xb4'
p197
aI3
aa(lp198
S'\xbb'
p199
aI10
aa(lp200
S'\xbc'
p201
aI4
aa(lp202
S'\xbf'
p203
aI9
aa(lp204
S'\xc3'
p205
aI118
aa(lp206
S'\xef'
p207
aI9
aatp208
Rp209
.